target datalayout = "e-m:e-p270:32:32-p271:32:32-p272:64:64-i64:64-i128:128-f80:128-n8:16:32:64-S128"
target triple = "x86_64-pc-linux-gnu"

%struct.AVChannelLayout = type { i32, i32, %union.anon.1, ptr }
%union.anon.1 = type { i64 }
%struct.AVRational = type { i32, i32 }
%struct.AVFrame = type { [8 x ptr], [8 x i32], ptr, i32, i32, i32, i32, i32, %struct.AVRational, i64, i64, %struct.AVRational, i32, ptr, i32, i32, [8 x ptr], ptr, i32, ptr, i32, i32, i32, i32, i32, i32, i32, i64, ptr, i32, ptr, ptr, i64, i64, i64, i64, ptr, %struct.AVChannelLayout, i64 }

; Function Attrs: nounwind uwtable
define internal i32 @is_same1_16(ptr noundef %0, i32 noundef %1, i32 noundef %2, i32 noundef %3, i32 noundef %4, i32 noundef %5, i32 noundef %6) #1 {
  %8 = alloca i32, align 4
  %9 = alloca ptr, align 8
  %10 = alloca i32, align 4
  %11 = alloca i32, align 4
  %12 = alloca i32, align 4
  %13 = alloca i32, align 4
  %14 = alloca i32, align 4
  %15 = alloca i32, align 4
  %16 = alloca i32, align 4
  %17 = alloca i32, align 4
  store ptr %0, ptr %9, align 8, !tbaa !26
  store i32 %1, ptr %10, align 4, !tbaa !36
  store i32 %2, ptr %11, align 4, !tbaa !36
  store i32 %3, ptr %12, align 4, !tbaa !36
  store i32 %4, ptr %13, align 4, !tbaa !36
  store i32 %5, ptr %14, align 4, !tbaa !36
  store i32 %6, ptr %15, align 4, !tbaa !36
  call void @llvm.lifetime.start.p0(i64 4, ptr %16) #4
  %18 = load ptr, ptr %9, align 8, !tbaa !26
  %19 = getelementptr inbounds nuw %struct.AVFrame, ptr %18, i32 0, i32 0
  %20 = getelementptr inbounds [8 x ptr], ptr %19, i64 0, i64 0
  %21 = load ptr, ptr %20, align 8, !tbaa !70
  %22 = load i32, ptr %11, align 4, !tbaa !36
  %23 = load ptr, ptr %9, align 8, !tbaa !26
  %24 = getelementptr inbounds nuw %struct.AVFrame, ptr %23, i32 0, i32 1
  %25 = getelementptr inbounds [8 x i32], ptr %24, i64 0, i64 0
  %26 = load i32, ptr %25, align 8, !tbaa !36
  %27 = mul nsw i32 %22, %26
  %28 = sext i32 %27 to i64
  %29 = getelementptr inbounds i8, ptr %21, i64 %28
  %30 = load i32, ptr %10, align 4, !tbaa !36
  %31 = mul nsw i32 2, %30
  %32 = sext i32 %31 to i64
  %33 = getelementptr inbounds i8, ptr %29, i64 %32
  %34 = load i16, ptr %33, align 1, !tbaa !71
  %35 = zext i16 %34 to i32
  store i32 %35, ptr %16, align 4, !tbaa !36
  %36 = load i32, ptr %12, align 4, !tbaa !36
  %37 = load i32, ptr %16, align 4, !tbaa !36
  %38 = icmp eq i32 %36, %37
  br i1 %38, label %39, label %40

39:                                               ; preds = %7
  store i32 1, ptr %8, align 4
  store i32 1, ptr %17, align 4
  br label %41

40:                                               ; preds = %7
  store i32 0, ptr %8, align 4
  store i32 1, ptr %17, align 4
  br label %41

41:                                               ; preds = %40, %39
  call void @llvm.lifetime.end.p0(i64 4, ptr %16) #4
  %42 = load i32, ptr %8, align 4
  ret i32 %42
}